target datalayout = "e-m:e-p270:32:32-p271:32:32-p272:64:64-i64:64-i128:128-f80:128-n8:16:32:64-S128"
target triple = "x86_64-pc-linux-gnu"

%struct.AVTextWriterContext = type { ptr, ptr, ptr, ptr }
%struct.AVTextWriter = type { ptr, i32, ptr, ptr, ptr, ptr, ptr, ptr }

; Function Attrs: nounwind uwtable
define i32 @avtextwriter_context_close(ptr noundef %0) #0 {
  %2 = alloca i32, align 4
  %3 = alloca ptr, align 8
  %4 = alloca ptr, align 8
  %5 = alloca i32, align 4
  %6 = alloca i32, align 4
  store ptr %0, ptr %3, align 8, !tbaa !107
  call void @llvm.lifetime.start.p0(i64 8, ptr %4) #10
  %7 = load ptr, ptr %3, align 8, !tbaa !107
  %8 = load ptr, ptr %7, align 8, !tbaa !29
  store ptr %8, ptr %4, align 8, !tbaa !29
  call void @llvm.lifetime.start.p0(i64 4, ptr %5) #10
  store i32 0, ptr %5, align 4, !tbaa !12
  %9 = load ptr, ptr %4, align 8, !tbaa !29
  %10 = icmp ne ptr %9, null
  br i1 %10, label %12, label %11

11:                                               ; preds = %1
  store i32 -22, ptr %2, align 4
  store i32 1, ptr %6, align 4
  br label %49

12:                                               ; preds = %1
  %13 = load ptr, ptr %4, align 8, !tbaa !29
  %14 = getelementptr inbounds nuw %struct.AVTextWriterContext, ptr %13, i32 0, i32 1
  %15 = load ptr, ptr %14, align 8, !tbaa !109
  %16 = icmp ne ptr %15, null
  br i1 %16, label %17, label %44

17:                                               ; preds = %12
  %18 = load ptr, ptr %4, align 8, !tbaa !29
  %19 = getelementptr inbounds nuw %struct.AVTextWriterContext, ptr %18, i32 0, i32 1
  %20 = load ptr, ptr %19, align 8, !tbaa !109
  %21 = getelementptr inbounds nuw %struct.AVTextWriter, ptr %20, i32 0, i32 4
  %22 = load ptr, ptr %21, align 8, !tbaa !112
  %23 = icmp ne ptr %22, null
  br i1 %23, label %24, label %32

24:                                               ; preds = %17
  %25 = load ptr, ptr %4, align 8, !tbaa !29
  %26 = getelementptr inbounds nuw %struct.AVTextWriterContext, ptr %25, i32 0, i32 1
  %27 = load ptr, ptr %26, align 8, !tbaa !109
  %28 = getelementptr inbounds nuw %struct.AVTextWriter, ptr %27, i32 0, i32 4
  %29 = load ptr, ptr %28, align 8, !tbaa !112
  %30 = load ptr, ptr %4, align 8, !tbaa !29
  %31 = call i32 %29(ptr noundef %30)
  store i32 %31, ptr %5, align 4, !tbaa !12
  br label %32

32:                                               ; preds = %24, %17
  %33 = load ptr, ptr %4, align 8, !tbaa !29
  %34 = getelementptr inbounds nuw %struct.AVTextWriterContext, ptr %33, i32 0, i32 1
  %35 = load ptr, ptr %34, align 8, !tbaa !109
  %36 = getelementptr inbounds nuw %struct.AVTextWriter, ptr %35, i32 0, i32 0
  %37 = load ptr, ptr %36, align 8, !tbaa !114
  %38 = icmp ne ptr %37, null
  br i1 %38, label %39, label %43

39:                                               ; preds = %32
  %40 = load ptr, ptr %4, align 8, !tbaa !29
  %41 = getelementptr inbounds nuw %struct.AVTextWriterContext, ptr %40, i32 0, i32 3
  %42 = load ptr, ptr %41, align 8, !tbaa !115
  call void @av_opt_free(ptr noundef %42)
  br label %43

43:                                               ; preds = %39, %32
  br label %44

44:                                               ; preds = %43, %12
  %45 = load ptr, ptr %4, align 8, !tbaa !29
  %46 = getelementptr inbounds nuw %struct.AVTextWriterContext, ptr %45, i32 0, i32 3
  call void @av_freep(ptr noundef %46)
  %47 = load ptr, ptr %3, align 8, !tbaa !107
  call void @av_freep(ptr noundef %47)
  %48 = load i32, ptr %5, align 4, !tbaa !12
  store i32 %48, ptr %2, align 4
  store i32 1, ptr %6, align 4
  br label %49

49:                                               ; preds = %44, %11
  call void @llvm.lifetime.end.p0(i64 4, ptr %5) #10
  call void @llvm.lifetime.end.p0(i64 8, ptr %4) #10
  %50 = load i32, ptr %2, align 4
  ret i32 %50
}

; Function Attrs: nounwind uwtable
define i32 @avtextwriter_context_open(ptr noundef %0, ptr noundef %1) #0 {
  %3 = alloca i32, align 4
  %4 = alloca ptr, align 8
  %5 = alloca ptr, align 8
  %6 = alloca ptr, align 8
  %7 = alloca i32, align 4
  %8 = alloca i32, align 4
  %9 = alloca ptr, align 8
  store ptr %0, ptr %4, align 8, !tbaa !107
  store ptr %1, ptr %5, align 8, !tbaa !116
  call void @llvm.lifetime.start.p0(i64 8, ptr %6) #10
  call void @llvm.lifetime.start.p0(i64 4, ptr %7) #10
  store i32 0, ptr %7, align 4, !tbaa !12
  %10 = load ptr, ptr %4, align 8, !tbaa !107
  %11 = icmp ne ptr %10, null
  br i1 %11, label %12, label %15

12:                                               ; preds = %2
  %13 = load ptr, ptr %5, align 8, !tbaa !116
  %14 = icmp ne ptr %13, null
  br i1 %14, label %16, label %15

15:                                               ; preds = %12, %2
  store i32 -22, ptr %3, align 4
  store i32 1, ptr %8, align 4
  br label %80

16:                                               ; preds = %12
  %17 = call noalias ptr @av_mallocz(i64 noundef 32)
  store ptr %17, ptr %6, align 8, !tbaa !29
  %18 = icmp ne ptr %17, null
  br i1 %18, label %20, label %19

19:                                               ; preds = %16
  store i32 -12, ptr %7, align 4, !tbaa !12
  br label %77

20:                                               ; preds = %16
  %21 = load ptr, ptr %5, align 8, !tbaa !116
  %22 = getelementptr inbounds nuw %struct.AVTextWriter, ptr %21, i32 0, i32 1
  %23 = load i32, ptr %22, align 8, !tbaa !117
  %24 = icmp ne i32 %23, 0
  br i1 %24, label %25, label %35

25:                                               ; preds = %20
  %26 = load ptr, ptr %5, align 8, !tbaa !116
  %27 = getelementptr inbounds nuw %struct.AVTextWriter, ptr %26, i32 0, i32 1
  %28 = load i32, ptr %27, align 8, !tbaa !117
  %29 = sext i32 %28 to i64
  %30 = call noalias ptr @av_mallocz(i64 noundef %29)
  %31 = load ptr, ptr %6, align 8, !tbaa !29
  %32 = getelementptr inbounds nuw %struct.AVTextWriterContext, ptr %31, i32 0, i32 3
  store ptr %30, ptr %32, align 8, !tbaa !115
  %33 = icmp ne ptr %30, null
  br i1 %33, label %35, label %34

34:                                               ; preds = %25
  store i32 -12, ptr %7, align 4, !tbaa !12
  br label %77

35:                                               ; preds = %25, %20
  %36 = load ptr, ptr %5, align 8, !tbaa !116
  %37 = getelementptr inbounds nuw %struct.AVTextWriter, ptr %36, i32 0, i32 0
  %38 = load ptr, ptr %37, align 8, !tbaa !114
  %39 = icmp ne ptr %38, null
  br i1 %39, label %40, label %49

40:                                               ; preds = %35
  call void @llvm.lifetime.start.p0(i64 8, ptr %9) #10
  %41 = load ptr, ptr %6, align 8, !tbaa !29
  %42 = getelementptr inbounds nuw %struct.AVTextWriterContext, ptr %41, i32 0, i32 3
  %43 = load ptr, ptr %42, align 8, !tbaa !115
  store ptr %43, ptr %9, align 8, !tbaa !50
  %44 = load ptr, ptr %5, align 8, !tbaa !116
  %45 = getelementptr inbounds nuw %struct.AVTextWriter, ptr %44, i32 0, i32 0
  %46 = load ptr, ptr %45, align 8, !tbaa !114
  %47 = load ptr, ptr %9, align 8, !tbaa !50
  store ptr %46, ptr %47, align 8, !tbaa !51
  %48 = load ptr, ptr %9, align 8, !tbaa !50
  call void @av_opt_set_defaults(ptr noundef %48)
  call void @llvm.lifetime.end.p0(i64 8, ptr %9) #10
  br label %49

49:                                               ; preds = %40, %35
  %50 = load ptr, ptr %6, align 8, !tbaa !29
  %51 = getelementptr inbounds nuw %struct.AVTextWriterContext, ptr %50, i32 0, i32 0
  store ptr @textwriter_class, ptr %51, align 8, !tbaa !118
  %52 = load ptr, ptr %5, align 8, !tbaa !116
  %53 = load ptr, ptr %6, align 8, !tbaa !29
  %54 = getelementptr inbounds nuw %struct.AVTextWriterContext, ptr %53, i32 0, i32 1
  store ptr %52, ptr %54, align 8, !tbaa !109
  %55 = load ptr, ptr %6, align 8, !tbaa !29
  call void @av_opt_set_defaults(ptr noundef %55)
  %56 = load ptr, ptr %6, align 8, !tbaa !29
  %57 = getelementptr inbounds nuw %struct.AVTextWriterContext, ptr %56, i32 0, i32 1
  %58 = load ptr, ptr %57, align 8, !tbaa !109
  %59 = getelementptr inbounds nuw %struct.AVTextWriter, ptr %58, i32 0, i32 3
  %60 = load ptr, ptr %59, align 8, !tbaa !119
  %61 = icmp ne ptr %60, null
  br i1 %61, label %62, label %70

62:                                               ; preds = %49
  %63 = load ptr, ptr %6, align 8, !tbaa !29
  %64 = getelementptr inbounds nuw %struct.AVTextWriterContext, ptr %63, i32 0, i32 1
  %65 = load ptr, ptr %64, align 8, !tbaa !109
  %66 = getelementptr inbounds nuw %struct.AVTextWriter, ptr %65, i32 0, i32 3
  %67 = load ptr, ptr %66, align 8, !tbaa !119
  %68 = load ptr, ptr %6, align 8, !tbaa !29
  %69 = call i32 %67(ptr noundef %68)
  store i32 %69, ptr %7, align 4, !tbaa !12
  br label %70

70:                                               ; preds = %62, %49
  %71 = load i32, ptr %7, align 4, !tbaa !12
  %72 = icmp slt i32 %71, 0
  br i1 %72, label %73, label %74

73:                                               ; preds = %70
  br label %77

74:                                               ; preds = %70
  %75 = load ptr, ptr %6, align 8, !tbaa !29
  %76 = load ptr, ptr %4, align 8, !tbaa !107
  store ptr %75, ptr %76, align 8, !tbaa !29
  store i32 0, ptr %3, align 4
  store i32 1, ptr %8, align 4
  br label %80

77:                                               ; preds = %73, %34, %19
  %78 = call i32 @avtextwriter_context_close(ptr noundef %6)
  %79 = load i32, ptr %7, align 4, !tbaa !12
  store i32 %79, ptr %3, align 4
  store i32 1, ptr %8, align 4
  br label %80

80:                                               ; preds = %77, %74, %15
  call void @llvm.lifetime.end.p0(i64 4, ptr %7) #10
  call void @llvm.lifetime.end.p0(i64 8, ptr %6) #10
  %81 = load i32, ptr %3, align 4
  ret i32 %81
}