; Function Attrs: nounwind uwtable
define range(i32 -2147483648, 1) i32 @avtextwriter_context_open(ptr noundef writeonly captures(address_is_null) %0, ptr noundef %1) local_unnamed_addr #0 {
  %3 = alloca ptr, align 8
  call void @llvm.lifetime.start.p0(i64 8, ptr nonnull %3) #12
  %4 = icmp ne ptr %0, null
  %5 = icmp ne ptr %1, null
  %or.cond = and i1 %4, %5
  br i1 %or.cond, label %6, label %avtextwriter_context_close.exit

6:                                                ; preds = %2
  %7 = tail call noalias ptr @av_mallocz(i64 noundef 32) #12
  store ptr %7, ptr %3, align 8, !tbaa !80
  %.not = icmp eq ptr %7, null
  br i1 %.not, label %avtextwriter_context_close.exit, label %8

8:                                                ; preds = %6
  %9 = getelementptr inbounds nuw i8, ptr %1, i64 8
  %10 = load i32, ptr %9, align 8, !tbaa !88
  %.not19 = icmp eq i32 %10, 0
  br i1 %.not19, label %15, label %11

11:                                               ; preds = %8
  %12 = sext i32 %10 to i64
  %13 = tail call noalias ptr @av_mallocz(i64 noundef %12) #12
  %14 = getelementptr inbounds nuw i8, ptr %7, i64 24
  store ptr %13, ptr %14, align 8, !tbaa !87
  %.not20 = icmp eq ptr %13, null
  br i1 %.not20, label %thread-pre-split, label %15

15:                                               ; preds = %11, %8
  %16 = load ptr, ptr %1, align 8, !tbaa !86
  %.not21 = icmp eq ptr %16, null
  br i1 %.not21, label %20, label %17

17:                                               ; preds = %15
  %18 = getelementptr inbounds nuw i8, ptr %7, i64 24
  %19 = load ptr, ptr %18, align 8, !tbaa !87
  store ptr %16, ptr %19, align 8, !tbaa !42
  tail call void @av_opt_set_defaults(ptr noundef nonnull %19) #12
  br label %20

20:                                               ; preds = %17, %15
  store ptr @textwriter_class, ptr %7, align 8, !tbaa !89
  %21 = getelementptr inbounds nuw i8, ptr %7, i64 8
  store ptr %1, ptr %21, align 8, !tbaa !81
  tail call void @av_opt_set_defaults(ptr noundef nonnull %7) #12
  %22 = load ptr, ptr %21, align 8, !tbaa !81
  %23 = getelementptr inbounds nuw i8, ptr %22, i64 24
  %24 = load ptr, ptr %23, align 8, !tbaa !90
  %.not22 = icmp eq ptr %24, null
  br i1 %.not22, label %.thread, label %25

25:                                               ; preds = %20
  %26 = tail call i32 %24(ptr noundef nonnull %7) #12
  %27 = icmp slt i32 %26, 0
  br i1 %27, label %thread-pre-split, label %.thread

.thread:                                          ; preds = %20, %25
  store ptr %7, ptr %0, align 8, !tbaa !80
  br label %avtextwriter_context_close.exit

thread-pre-split:                                 ; preds = %11, %25
  %.013 = phi i32 [ -12, %11 ], [ %26, %25 ]
  %28 = getelementptr inbounds nuw i8, ptr %7, i64 8
  %29 = load ptr, ptr %28, align 8, !tbaa !81
  %.not15.i = icmp eq ptr %29, null
  br i1 %.not15.i, label %41, label %30

30:                                               ; preds = %thread-pre-split
  %31 = getelementptr inbounds nuw i8, ptr %29, i64 32
  %32 = load ptr, ptr %31, align 8, !tbaa !84
  %.not16.i = icmp eq ptr %32, null
  br i1 %.not16.i, label %35, label %33

33:                                               ; preds = %30
  %34 = tail call i32 %32(ptr noundef nonnull %7) #12
  %.pre.i = load ptr, ptr %28, align 8, !tbaa !81
  br label %35

35:                                               ; preds = %33, %30
  %36 = phi ptr [ %.pre.i, %33 ], [ %29, %30 ]
  %37 = load ptr, ptr %36, align 8, !tbaa !86
  %.not17.i = icmp eq ptr %37, null
  br i1 %.not17.i, label %41, label %38

38:                                               ; preds = %35
  %39 = getelementptr inbounds nuw i8, ptr %7, i64 24
  %40 = load ptr, ptr %39, align 8, !tbaa !87
  tail call void @av_opt_free(ptr noundef %40) #12
  br label %41

41:                                               ; preds = %38, %35, %thread-pre-split
  %42 = getelementptr inbounds nuw i8, ptr %7, i64 24
  tail call void @av_freep(ptr noundef nonnull %42) #12
  call void @av_freep(ptr noundef nonnull %3) #12
  br label %avtextwriter_context_close.exit

avtextwriter_context_close.exit:                  ; preds = %6, %41, %2, %.thread
  %.0 = phi i32 [ 0, %.thread ], [ -22, %2 ], [ %.013, %41 ], [ -12, %6 ]
  call void @llvm.lifetime.end.p0(i64 8, ptr nonnull %3) #12
  ret i32 %.0
}